target datalayout = "e-m:e-p270:32:32-p271:32:32-p272:64:64-i64:64-i128:128-f80:128-n8:16:32:64-S128"
target triple = "x86_64-pc-linux-gnu"

%struct._PyRWMutex = type { i64 }
%struct.PyEvent = type { i8 }
%struct.test_rwlock_data = type { i64, %struct._PyRWMutex, %struct.PyEvent, %struct.PyEvent, %struct.PyEvent, %struct.PyEvent }

; Function Attrs: inlinehint nounwind uwtable
define internal i64 @_Py_atomic_add_ssize(ptr noundef %0, i64 noundef %1) #4 {
  %3 = alloca ptr, align 8
  %4 = alloca i64, align 8
  %5 = alloca i64, align 8
  %6 = alloca i64, align 8
  store ptr %0, ptr %3, align 8, !tbaa !84
  store i64 %1, ptr %4, align 8, !tbaa !18
  %7 = load ptr, ptr %3, align 8, !tbaa !84
  %8 = load i64, ptr %4, align 8, !tbaa !18
  store i64 %8, ptr %5, align 8, !tbaa !18
  %9 = load i64, ptr %5, align 8
  %10 = atomicrmw add ptr %7, i64 %9 seq_cst, align 8
  store i64 %10, ptr %6, align 8
  %11 = load i64, ptr %6, align 8, !tbaa !18
  ret i64 %11
}

; Function Attrs: nounwind uwtable
define internal void @wrlock_thread(ptr noundef %0) #0 {
  %2 = alloca ptr, align 8
  %3 = alloca ptr, align 8
  store ptr %0, ptr %2, align 8, !tbaa !47
  call void @llvm.lifetime.start.p0(i64 8, ptr %3) #8
  %4 = load ptr, ptr %2, align 8, !tbaa !47
  store ptr %4, ptr %3, align 8, !tbaa !94
  %5 = load ptr, ptr %3, align 8, !tbaa !94
  %6 = getelementptr inbounds nuw %struct.test_rwlock_data, ptr %5, i32 0, i32 1
  call void @_PyRWMutex_Lock(ptr noundef %6)
  %7 = load ptr, ptr %3, align 8, !tbaa !94
  %8 = getelementptr inbounds nuw %struct.test_rwlock_data, ptr %7, i32 0, i32 3
  call void @PyEvent_Wait(ptr noundef %8)
  %9 = load ptr, ptr %3, align 8, !tbaa !94
  %10 = getelementptr inbounds nuw %struct.test_rwlock_data, ptr %9, i32 0, i32 1
  call void @_PyRWMutex_Unlock(ptr noundef %10)
  %11 = load ptr, ptr %3, align 8, !tbaa !94
  %12 = getelementptr inbounds nuw %struct.test_rwlock_data, ptr %11, i32 0, i32 0
  %13 = call i64 @_Py_atomic_add_ssize(ptr noundef %12, i64 noundef -1)
  %14 = icmp eq i64 %13, 1
  br i1 %14, label %15, label %18

15:                                               ; preds = %1
  %16 = load ptr, ptr %3, align 8, !tbaa !94
  %17 = getelementptr inbounds nuw %struct.test_rwlock_data, ptr %16, i32 0, i32 5
  call void @_PyEvent_Notify(ptr noundef %17)
  br label %18

18:                                               ; preds = %15, %1
  call void @llvm.lifetime.end.p0(i64 8, ptr %3) #8
  ret void
}