; Function Attrs: nounwind uwtable
define internal void @wrlock_thread(ptr noundef %0) #0 {
  %2 = getelementptr inbounds nuw i8, ptr %0, i64 8
  tail call void @_PyRWMutex_Lock(ptr noundef nonnull %2) #6
  %3 = getelementptr inbounds nuw i8, ptr %0, i64 17
  tail call void @PyEvent_Wait(ptr noundef nonnull %3) #6
  tail call void @_PyRWMutex_Unlock(ptr noundef nonnull %2) #6
  %4 = atomicrmw add ptr %0, i64 -1 seq_cst, align 8
  %5 = icmp eq i64 %4, 1
  br i1 %5, label %6, label %8

6:                                                ; preds = %1
  %7 = getelementptr inbounds nuw i8, ptr %0, i64 19
  tail call void @_PyEvent_Notify(ptr noundef nonnull %7) #6
  br label %8

8:                                                ; preds = %6, %1
  ret void
}